target datalayout = "e-m:e-p270:32:32-p271:32:32-p272:64:64-i64:64-i128:128-f80:128-n8:16:32:64-S128"
target triple = "x86_64-pc-linux-gnu"

%struct.strbuf = type { i64, i64, ptr }

@__const.unsupported_magic.sb = private unnamed_addr constant %struct.strbuf { i64 0, i64 0, ptr @strbuf_slopbuf }, align 8
@.str.52 = private unnamed_addr constant [53 x i8] c"%s: pathspec magic not supported by this command: %s\00", align 1

; Function Attrs: noreturn nounwind uwtable
define internal void @unsupported_magic(ptr noundef %0, i32 noundef %1) #7 {
  %3 = alloca ptr, align 8
  %4 = alloca i32, align 4
  %5 = alloca %struct.strbuf, align 8
  store ptr %0, ptr %3, align 8, !tbaa !11
  store i32 %1, ptr %4, align 4, !tbaa !13
  call void @llvm.lifetime.start.p0(i64 24, ptr %5) #10
  call void @llvm.memcpy.p0.p0.i64(ptr align 8 %5, ptr align 8 @__const.unsupported_magic.sb, i64 24, i1 false)
  %6 = load i32, ptr %4, align 4, !tbaa !13
  call void @pathspec_magic_names(i32 noundef %6, ptr noundef %5)
  %7 = call ptr @_(ptr noundef @.str.52)
  %8 = load ptr, ptr %3, align 8, !tbaa !11
  %9 = getelementptr inbounds nuw %struct.strbuf, ptr %5, i32 0, i32 2
  %10 = load ptr, ptr %9, align 8, !tbaa !90
  call void (ptr, ...) @die(ptr noundef %7, ptr noundef %8, ptr noundef %10) #12
  unreachable
}