; Function Attrs: noreturn nounwind uwtable
define internal fastcc void @unsupported_magic(ptr noundef %0, i32 noundef range(i32 1, 0) %1) unnamed_addr #7 {
  %3 = alloca %struct.strbuf, align 8
  call void @llvm.lifetime.start.p0(i64 24, ptr nonnull %3) #17
  call void @llvm.memcpy.p0.p0.i64(ptr noundef nonnull align 8 dereferenceable(24) %3, ptr noundef nonnull align 8 dereferenceable(24) @__const.unsupported_magic.sb, i64 24, i1 false)
  call void @pathspec_magic_names(i32 noundef %1, ptr noundef nonnull %3)
  %4 = call fastcc ptr @_(ptr noundef nonnull @.str.52)
  %5 = getelementptr inbounds nuw i8, ptr %3, i64 16
  %6 = load ptr, ptr %5, align 8, !tbaa !97
  call void (ptr, ...) @die(ptr noundef %4, ptr noundef %0, ptr noundef %6) #18
  unreachable
}